; Function Attrs: nounwind uwtable
define dso_local ptr @tuplehash_insert(ptr noundef captures(none) %0, ptr noundef %1, ptr noundef writeonly captures(none) %2) local_unnamed_addr #0 {
  %4 = alloca i8, align 1
  %5 = getelementptr i8, ptr %0, i64 40
  %.val = load ptr, ptr %5, align 8
  call void @llvm.lifetime.start.p0(i64 1, ptr nonnull %4) #15
  %6 = icmp eq ptr %1, null
  %7 = getelementptr inbounds nuw i8, ptr %.val, i64 96
  %8 = load ptr, ptr %7, align 8
  %9 = getelementptr inbounds nuw i8, ptr %8, i64 16
  br i1 %6, label %10, label %13

10:                                               ; preds = %3
  %11 = getelementptr inbounds nuw i8, ptr %.val, i64 72
  %12 = load ptr, ptr %11, align 8
  store ptr %12, ptr %9, align 8
  br label %TupleHashTableHash_internal.exit

13:                                               ; preds = %3
  %14 = getelementptr inbounds nuw i8, ptr %.val, i64 64
  %15 = load ptr, ptr %14, align 8
  store ptr %15, ptr %9, align 8
  %16 = tail call ptr @ExecStoreMinimalTuple(ptr noundef nonnull %1, ptr noundef %15, i1 noundef zeroext false) #15
  br label %TupleHashTableHash_internal.exit

TupleHashTableHash_internal.exit:                 ; preds = %10, %13
  %.sink.i = phi i64 [ 24, %13 ], [ 80, %10 ]
  %17 = getelementptr inbounds nuw i8, ptr %.val, i64 %.sink.i
  %18 = load ptr, ptr %17, align 8
  %19 = load ptr, ptr %7, align 8
  %20 = getelementptr inbounds nuw i8, ptr %18, i64 32
  %21 = load ptr, ptr %20, align 8
  %22 = call i64 %21(ptr noundef %18, ptr noundef %19, ptr noundef nonnull %4) #15
  %.0.i = trunc i64 %22 to i32
  %23 = lshr i32 %.0.i, 16
  %24 = xor i32 %23, %.0.i
  %25 = mul i32 %24, -2048144789
  %26 = lshr i32 %25, 13
  %27 = xor i32 %26, %25
  %28 = mul i32 %27, -1028477387
  %29 = lshr i32 %28, 16
  %30 = xor i32 %29, %28
  call void @llvm.lifetime.end.p0(i64 1, ptr nonnull %4) #15
  %31 = call fastcc ptr @tuplehash_insert_hash_internal(ptr noundef nonnull %0, ptr noundef %1, i32 noundef %30, ptr noundef %2)
  ret ptr %31
}